; Function Attrs: nounwind uwtable
define void @Gia_ManFanoutStart(ptr noundef captures(none) initializes((232, 244)) %0) local_unnamed_addr #0 {
  %2 = getelementptr i8, ptr %0, i64 24
  %.val = load i32, ptr %2, align 8, !tbaa !3
  %3 = getelementptr inbounds nuw i8, ptr %0, i64 240
  %4 = tail call i32 @llvm.smax.i32(i32 %.val, i32 2048)
  %spec.select = shl nuw i32 %4, 1
  store i32 %spec.select, ptr %3, align 8, !tbaa !28
  %5 = mul i32 %4, 10
  %6 = sext i32 %5 to i64
  %7 = shl nsw i64 %6, 2
  %8 = tail call noalias ptr @malloc(i64 noundef %7) #13
  %9 = getelementptr inbounds nuw i8, ptr %0, i64 232
  store ptr %8, ptr %9, align 8, !tbaa !29
  %10 = sext i32 %spec.select to i64
  %11 = mul nsw i64 %10, 20
  tail call void @llvm.memset.p0.i64(ptr noundef nonnull align 4 dereferenceable(1) %8, i8 0, i64 %11, i1 false)
  %12 = getelementptr i8, ptr %0, i64 32
  %13 = icmp sgt i32 %.val, 0
  br i1 %13, label %.lr.ph, label %.critedge

.lr.ph:                                           ; preds = %1, %34
  %indvars.iv = phi i64 [ %indvars.iv.next, %34 ], [ 0, %1 ]
  %.val23 = load ptr, ptr %12, align 8, !tbaa !30
  %14 = getelementptr inbounds nuw %struct.Gia_Obj_t_, ptr %.val23, i64 %indvars.iv
  %.not = icmp eq ptr %.val23, null
  br i1 %.not, label %.critedge, label %15

15:                                               ; preds = %.lr.ph
  %16 = load i64, ptr %14, align 4
  %17 = and i64 %16, 536870911
  %18 = sub nsw i64 0, %17
  %19 = getelementptr inbounds %struct.Gia_Obj_t_, ptr %14, i64 %18
  %20 = lshr i64 %16, 29
  %21 = and i64 %20, 1
  %22 = ptrtoint ptr %19 to i64
  %.not21 = icmp eq i64 %21, %22
  br i1 %.not21, label %24, label %23

23:                                               ; preds = %15
  tail call void @Gia_ObjAddFanout(ptr noundef nonnull %0, ptr noundef nonnull %19, ptr noundef nonnull %14)
  %.pre = load i64, ptr %14, align 4
  br label %24

24:                                               ; preds = %23, %15
  %25 = phi i64 [ %.pre, %23 ], [ %16, %15 ]
  %26 = lshr i64 %25, 32
  %27 = and i64 %26, 536870911
  %28 = sub nsw i64 0, %27
  %29 = getelementptr inbounds %struct.Gia_Obj_t_, ptr %14, i64 %28
  %30 = lshr i64 %25, 61
  %31 = and i64 %30, 1
  %32 = ptrtoint ptr %29 to i64
  %.not22 = icmp eq i64 %31, %32
  br i1 %.not22, label %34, label %33

33:                                               ; preds = %24
  tail call void @Gia_ObjAddFanout(ptr noundef nonnull %0, ptr noundef nonnull %29, ptr noundef nonnull %14)
  br label %34

34:                                               ; preds = %24, %33
  %indvars.iv.next = add nuw nsw i64 %indvars.iv, 1
  %35 = load i32, ptr %2, align 8, !tbaa !3
  %36 = sext i32 %35 to i64
  %37 = icmp slt i64 %indvars.iv.next, %36
  br i1 %37, label %.lr.ph, label %.critedge, !llvm.loop !31

.critedge:                                        ; preds = %.lr.ph, %34, %1
  ret void
}